(lp0
S'g'
p1
a(lp2
(I175
I950
I0
I0
tp3
a(I875
I975
I0
I0
tp4
a(I600
I950
I0
I0
tp5
a(I600
I1500
I1
I0
tp6
a(I600
I1925
I0
I1
tp7
a(I600
I1675
I0
I1
tp8
a(I1150
I1650
I0
I1
tp9
a(I1150
I1925
I0
I0
tp10
aa.