(lp0
S'g'
p1
a(lp2
(I150
I950
I0
I0
tp3
a(I850
I950
I0
I0
tp4
a(I450
I950
I0
I0
tp5
a(I525
I1725
I1
I0
tp6
a(I875
I1725
I1
I0
tp7
a(I650
I1650
I0
I0
tp8
a(I650
I1920
I0
I1
tp9
a(I650
I1750
I0
I1
tp10
a(I1225
I1700
I0
I1
tp11
a(I1225
I1920
I0
I0
tp12
aa.