(lp0
S'd'
p1
a(lp2
(I2850
I950
I0
I0
tp3
a(I2150
I950
I0
I0
tp4
a(I2550
I950
I0
I0
tp5
a(I2475
I1725
I1
I0
tp6
a(I2125
I1725
I1
I0
tp7
a(I2350
I1650
I0
I0
tp8
a(I2350
I1920
I0
I1
tp9
a(I2350
I1750
I0
I1
tp10
a(I1775
I1700
I0
I1
tp11
a(I1775
I1920
I0
I0
tp12
aa.